target datalayout = "e-m:e-p270:32:32-p271:32:32-p272:64:64-i64:64-i128:128-f80:128-n8:16:32:64-S128"
target triple = "x86_64-pc-linux-gnu"

%struct._object = type { %union.anon, ptr }
%union.anon = type { i64 }
%struct.RandomObject = type { %struct._object, i32, [624 x i32] }

@genrand_uint32.mag01 = internal constant [2 x i32] [i32 0, i32 -1727483681], align 4

; Function Attrs: nounwind uwtable
define internal i32 @genrand_uint32(ptr noundef %0) #0 {
  %2 = alloca ptr, align 8
  %3 = alloca i32, align 4
  %4 = alloca ptr, align 8
  %5 = alloca i32, align 4
  store ptr %0, ptr %2, align 8, !tbaa !8
  call void @llvm.lifetime.start.p0(i64 4, ptr %3) #7
  call void @llvm.lifetime.start.p0(i64 8, ptr %4) #7
  %6 = load ptr, ptr %2, align 8, !tbaa !8
  %7 = getelementptr inbounds nuw %struct.RandomObject, ptr %6, i32 0, i32 2
  %8 = getelementptr inbounds [624 x i32], ptr %7, i64 0, i64 0
  store ptr %8, ptr %4, align 8, !tbaa !32
  %9 = load ptr, ptr %2, align 8, !tbaa !8
  %10 = getelementptr inbounds nuw %struct.RandomObject, ptr %9, i32 0, i32 1
  %11 = load i32, ptr %10, align 8, !tbaa !34
  %12 = icmp sge i32 %11, 624
  br i1 %12, label %13, label %121

13:                                               ; preds = %1
  call void @llvm.lifetime.start.p0(i64 4, ptr %5) #7
  store i32 0, ptr %5, align 4, !tbaa !11
  br label %14

14:                                               ; preds = %51, %13
  %15 = load i32, ptr %5, align 4, !tbaa !11
  %16 = icmp slt i32 %15, 227
  br i1 %16, label %17, label %54

17:                                               ; preds = %14
  %18 = load ptr, ptr %4, align 8, !tbaa !32
  %19 = load i32, ptr %5, align 4, !tbaa !11
  %20 = sext i32 %19 to i64
  %21 = getelementptr i32, ptr %18, i64 %20
  %22 = load i32, ptr %21, align 4, !tbaa !11
  %23 = and i32 %22, -2147483648
  %24 = load ptr, ptr %4, align 8, !tbaa !32
  %25 = load i32, ptr %5, align 4, !tbaa !11
  %26 = add i32 %25, 1
  %27 = sext i32 %26 to i64
  %28 = getelementptr i32, ptr %24, i64 %27
  %29 = load i32, ptr %28, align 4, !tbaa !11
  %30 = and i32 %29, 2147483647
  %31 = or i32 %23, %30
  store i32 %31, ptr %3, align 4, !tbaa !11
  %32 = load ptr, ptr %4, align 8, !tbaa !32
  %33 = load i32, ptr %5, align 4, !tbaa !11
  %34 = add i32 %33, 397
  %35 = sext i32 %34 to i64
  %36 = getelementptr i32, ptr %32, i64 %35
  %37 = load i32, ptr %36, align 4, !tbaa !11
  %38 = load i32, ptr %3, align 4, !tbaa !11
  %39 = lshr i32 %38, 1
  %40 = xor i32 %37, %39
  %41 = load i32, ptr %3, align 4, !tbaa !11
  %42 = and i32 %41, 1
  %43 = zext i32 %42 to i64
  %44 = getelementptr [2 x i32], ptr @genrand_uint32.mag01, i64 0, i64 %43
  %45 = load i32, ptr %44, align 4, !tbaa !11
  %46 = xor i32 %40, %45
  %47 = load ptr, ptr %4, align 8, !tbaa !32
  %48 = load i32, ptr %5, align 4, !tbaa !11
  %49 = sext i32 %48 to i64
  %50 = getelementptr i32, ptr %47, i64 %49
  store i32 %46, ptr %50, align 4, !tbaa !11
  br label %51

51:                                               ; preds = %17
  %52 = load i32, ptr %5, align 4, !tbaa !11
  %53 = add i32 %52, 1
  store i32 %53, ptr %5, align 4, !tbaa !11
  br label %14, !llvm.loop !36

54:                                               ; preds = %14
  br label %55

55:                                               ; preds = %92, %54
  %56 = load i32, ptr %5, align 4, !tbaa !11
  %57 = icmp slt i32 %56, 623
  br i1 %57, label %58, label %95

58:                                               ; preds = %55
  %59 = load ptr, ptr %4, align 8, !tbaa !32
  %60 = load i32, ptr %5, align 4, !tbaa !11
  %61 = sext i32 %60 to i64
  %62 = getelementptr i32, ptr %59, i64 %61
  %63 = load i32, ptr %62, align 4, !tbaa !11
  %64 = and i32 %63, -2147483648
  %65 = load ptr, ptr %4, align 8, !tbaa !32
  %66 = load i32, ptr %5, align 4, !tbaa !11
  %67 = add i32 %66, 1
  %68 = sext i32 %67 to i64
  %69 = getelementptr i32, ptr %65, i64 %68
  %70 = load i32, ptr %69, align 4, !tbaa !11
  %71 = and i32 %70, 2147483647
  %72 = or i32 %64, %71
  store i32 %72, ptr %3, align 4, !tbaa !11
  %73 = load ptr, ptr %4, align 8, !tbaa !32
  %74 = load i32, ptr %5, align 4, !tbaa !11
  %75 = add i32 %74, -227
  %76 = sext i32 %75 to i64
  %77 = getelementptr i32, ptr %73, i64 %76
  %78 = load i32, ptr %77, align 4, !tbaa !11
  %79 = load i32, ptr %3, align 4, !tbaa !11
  %80 = lshr i32 %79, 1
  %81 = xor i32 %78, %80
  %82 = load i32, ptr %3, align 4, !tbaa !11
  %83 = and i32 %82, 1
  %84 = zext i32 %83 to i64
  %85 = getelementptr [2 x i32], ptr @genrand_uint32.mag01, i64 0, i64 %84
  %86 = load i32, ptr %85, align 4, !tbaa !11
  %87 = xor i32 %81, %86
  %88 = load ptr, ptr %4, align 8, !tbaa !32
  %89 = load i32, ptr %5, align 4, !tbaa !11
  %90 = sext i32 %89 to i64
  %91 = getelementptr i32, ptr %88, i64 %90
  store i32 %87, ptr %91, align 4, !tbaa !11
  br label %92

92:                                               ; preds = %58
  %93 = load i32, ptr %5, align 4, !tbaa !11
  %94 = add i32 %93, 1
  store i32 %94, ptr %5, align 4, !tbaa !11
  br label %55, !llvm.loop !38

95:                                               ; preds = %55
  %96 = load ptr, ptr %4, align 8, !tbaa !32
  %97 = getelementptr i32, ptr %96, i64 623
  %98 = load i32, ptr %97, align 4, !tbaa !11
  %99 = and i32 %98, -2147483648
  %100 = load ptr, ptr %4, align 8, !tbaa !32
  %101 = getelementptr i32, ptr %100, i64 0
  %102 = load i32, ptr %101, align 4, !tbaa !11
  %103 = and i32 %102, 2147483647
  %104 = or i32 %99, %103
  store i32 %104, ptr %3, align 4, !tbaa !11
  %105 = load ptr, ptr %4, align 8, !tbaa !32
  %106 = getelementptr i32, ptr %105, i64 396
  %107 = load i32, ptr %106, align 4, !tbaa !11
  %108 = load i32, ptr %3, align 4, !tbaa !11
  %109 = lshr i32 %108, 1
  %110 = xor i32 %107, %109
  %111 = load i32, ptr %3, align 4, !tbaa !11
  %112 = and i32 %111, 1
  %113 = zext i32 %112 to i64
  %114 = getelementptr [2 x i32], ptr @genrand_uint32.mag01, i64 0, i64 %113
  %115 = load i32, ptr %114, align 4, !tbaa !11
  %116 = xor i32 %110, %115
  %117 = load ptr, ptr %4, align 8, !tbaa !32
  %118 = getelementptr i32, ptr %117, i64 623
  store i32 %116, ptr %118, align 4, !tbaa !11
  %119 = load ptr, ptr %2, align 8, !tbaa !8
  %120 = getelementptr inbounds nuw %struct.RandomObject, ptr %119, i32 0, i32 1
  store i32 0, ptr %120, align 8, !tbaa !34
  call void @llvm.lifetime.end.p0(i64 4, ptr %5) #7
  br label %121

121:                                              ; preds = %95, %1
  %122 = load ptr, ptr %4, align 8, !tbaa !32
  %123 = load ptr, ptr %2, align 8, !tbaa !8
  %124 = getelementptr inbounds nuw %struct.RandomObject, ptr %123, i32 0, i32 1
  %125 = load i32, ptr %124, align 8, !tbaa !34
  %126 = add i32 %125, 1
  store i32 %126, ptr %124, align 8, !tbaa !34
  %127 = sext i32 %125 to i64
  %128 = getelementptr i32, ptr %122, i64 %127
  %129 = load i32, ptr %128, align 4, !tbaa !11
  store i32 %129, ptr %3, align 4, !tbaa !11
  %130 = load i32, ptr %3, align 4, !tbaa !11
  %131 = lshr i32 %130, 11
  %132 = load i32, ptr %3, align 4, !tbaa !11
  %133 = xor i32 %132, %131
  store i32 %133, ptr %3, align 4, !tbaa !11
  %134 = load i32, ptr %3, align 4, !tbaa !11
  %135 = shl i32 %134, 7
  %136 = and i32 %135, -1658038656
  %137 = load i32, ptr %3, align 4, !tbaa !11
  %138 = xor i32 %137, %136
  store i32 %138, ptr %3, align 4, !tbaa !11
  %139 = load i32, ptr %3, align 4, !tbaa !11
  %140 = shl i32 %139, 15
  %141 = and i32 %140, -272236544
  %142 = load i32, ptr %3, align 4, !tbaa !11
  %143 = xor i32 %142, %141
  store i32 %143, ptr %3, align 4, !tbaa !11
  %144 = load i32, ptr %3, align 4, !tbaa !11
  %145 = lshr i32 %144, 18
  %146 = load i32, ptr %3, align 4, !tbaa !11
  %147 = xor i32 %146, %145
  store i32 %147, ptr %3, align 4, !tbaa !11
  %148 = load i32, ptr %3, align 4, !tbaa !11
  call void @llvm.lifetime.end.p0(i64 8, ptr %4) #7
  call void @llvm.lifetime.end.p0(i64 4, ptr %3) #7
  ret i32 %148
}