; Function Attrs: nofree norecurse nosync nounwind memory(argmem: readwrite) uwtable
define internal fastcc i32 @genrand_uint32(ptr noundef captures(none) %0) unnamed_addr #3 {
  %2 = getelementptr inbounds nuw i8, ptr %0, i64 20
  %3 = getelementptr inbounds nuw i8, ptr %0, i64 16
  %4 = load i32, ptr %3, align 8, !tbaa !32
  %5 = icmp sgt i32 %4, 623
  br i1 %5, label %.preheader43.preheader, label %53

.preheader43.preheader:                           ; preds = %1
  %.pre = load i32, ptr %2, align 4, !tbaa !29
  br label %.preheader43

.lr.ph.preheader:                                 ; preds = %.preheader43
  %.phi.trans.insert = getelementptr i8, ptr %0, i64 928
  %.pre51 = load i32, ptr %.phi.trans.insert, align 4, !tbaa !29
  br label %.lr.ph

.preheader43:                                     ; preds = %.preheader43.preheader, %.preheader43
  %6 = phi i32 [ %.pre, %.preheader43.preheader ], [ %10, %.preheader43 ]
  %indvars.iv = phi i64 [ 0, %.preheader43.preheader ], [ %indvars.iv.next, %.preheader43 ]
  %7 = getelementptr i32, ptr %2, i64 %indvars.iv
  %8 = and i32 %6, -2147483648
  %indvars.iv.next = add nuw nsw i64 %indvars.iv, 1
  %9 = getelementptr i32, ptr %2, i64 %indvars.iv.next
  %10 = load i32, ptr %9, align 4, !tbaa !29
  %11 = and i32 %10, 2147483646
  %12 = or disjoint i32 %11, %8
  %13 = getelementptr i8, ptr %7, i64 1588
  %14 = load i32, ptr %13, align 4, !tbaa !29
  %15 = lshr exact i32 %12, 1
  %16 = and i32 %10, 1
  %17 = zext nneg i32 %16 to i64
  %18 = getelementptr [2 x i32], ptr @genrand_uint32.mag01, i64 0, i64 %17
  %19 = load i32, ptr %18, align 4, !tbaa !29
  %20 = xor i32 %19, %14
  %21 = xor i32 %20, %15
  store i32 %21, ptr %7, align 4, !tbaa !29
  %exitcond.not = icmp eq i64 %indvars.iv.next, 227
  br i1 %exitcond.not, label %.lr.ph.preheader, label %.preheader43, !llvm.loop !36

.lr.ph:                                           ; preds = %.lr.ph.preheader, %.lr.ph
  %22 = phi i32 [ %.pre51, %.lr.ph.preheader ], [ %26, %.lr.ph ]
  %indvars.iv47 = phi i64 [ 227, %.lr.ph.preheader ], [ %indvars.iv.next48, %.lr.ph ]
  %23 = getelementptr i32, ptr %2, i64 %indvars.iv47
  %24 = and i32 %22, -2147483648
  %indvars.iv.next48 = add nuw nsw i64 %indvars.iv47, 1
  %25 = getelementptr i32, ptr %2, i64 %indvars.iv.next48
  %26 = load i32, ptr %25, align 4, !tbaa !29
  %27 = and i32 %26, 2147483646
  %28 = or disjoint i32 %27, %24
  %29 = getelementptr i8, ptr %23, i64 -908
  %30 = load i32, ptr %29, align 4, !tbaa !29
  %31 = lshr exact i32 %28, 1
  %32 = and i32 %26, 1
  %33 = zext nneg i32 %32 to i64
  %34 = getelementptr [2 x i32], ptr @genrand_uint32.mag01, i64 0, i64 %33
  %35 = load i32, ptr %34, align 4, !tbaa !29
  %36 = xor i32 %35, %30
  %37 = xor i32 %36, %31
  store i32 %37, ptr %23, align 4, !tbaa !29
  %exitcond50.not = icmp eq i64 %indvars.iv.next48, 623
  br i1 %exitcond50.not, label %._crit_edge, label %.lr.ph, !llvm.loop !37

._crit_edge:                                      ; preds = %.lr.ph
  %38 = getelementptr i8, ptr %0, i64 2512
  %39 = load i32, ptr %38, align 4, !tbaa !29
  %40 = and i32 %39, -2147483648
  %41 = load i32, ptr %2, align 4, !tbaa !29
  %42 = and i32 %41, 2147483646
  %43 = or disjoint i32 %42, %40
  %44 = getelementptr i8, ptr %0, i64 1604
  %45 = load i32, ptr %44, align 4, !tbaa !29
  %46 = lshr exact i32 %43, 1
  %47 = and i32 %41, 1
  %48 = zext nneg i32 %47 to i64
  %49 = getelementptr [2 x i32], ptr @genrand_uint32.mag01, i64 0, i64 %48
  %50 = load i32, ptr %49, align 4, !tbaa !29
  %51 = xor i32 %50, %45
  %52 = xor i32 %51, %46
  store i32 %52, ptr %38, align 4, !tbaa !29
  br label %53

53:                                               ; preds = %._crit_edge, %1
  %54 = phi i32 [ 0, %._crit_edge ], [ %4, %1 ]
  %55 = add nsw i32 %54, 1
  store i32 %55, ptr %3, align 8, !tbaa !32
  %56 = sext i32 %54 to i64
  %57 = getelementptr i32, ptr %2, i64 %56
  %58 = load i32, ptr %57, align 4, !tbaa !29
  %59 = lshr i32 %58, 11
  %60 = xor i32 %59, %58
  %61 = shl i32 %60, 7
  %62 = and i32 %61, -1658038656
  %63 = xor i32 %62, %60
  %64 = shl i32 %63, 15
  %65 = and i32 %64, -272236544
  %66 = xor i32 %65, %63
  %67 = lshr i32 %66, 18
  %68 = xor i32 %67, %66
  ret i32 %68
}